; Function Attrs: mustprogress nounwind uwtable
define dso_local void @_ZN5clang14TextNodeDumper26VisitCXXDeductionGuideDeclEPKNS_21CXXDeductionGuideDeclE(ptr noundef nonnull align 8 dereferenceable(1168) %0, ptr noundef %1) local_unnamed_addr #0 align 2 {
  tail call void @_ZN5clang14TextNodeDumper17VisitFunctionDeclEPKNS_12FunctionDeclE(ptr noundef nonnull align 8 dereferenceable(1168) %0, ptr noundef %1)
  %3 = getelementptr inbounds i8, ptr %1, i64 82
  %4 = load i32, ptr %3, align 2
  %5 = and i32 %4, 25165824
  %cond = icmp eq i32 %5, 16777216
  br i1 %cond, label %6, label %_ZN4llvm11raw_ostreamlsEPKc.exit

6:                                                ; preds = %2
  %7 = getelementptr inbounds nuw i8, ptr %0, i64 1096
  %8 = load ptr, ptr %7, align 8
  %9 = getelementptr inbounds nuw i8, ptr %8, i64 24
  %10 = load ptr, ptr %9, align 8
  %11 = getelementptr inbounds nuw i8, ptr %8, i64 32
  %12 = load ptr, ptr %11, align 8
  %13 = ptrtoint ptr %10 to i64
  %14 = ptrtoint ptr %12 to i64
  %15 = sub i64 %13, %14
  %16 = icmp ult i64 %15, 11
  br i1 %16, label %17, label %19

17:                                               ; preds = %6
  %18 = tail call noundef nonnull align 8 dereferenceable(48) ptr @_ZN4llvm11raw_ostream5writeEPKcm(ptr noundef nonnull align 8 dereferenceable(48) %8, ptr noundef nonnull @.str.731, i64 noundef 11) #18
  br label %_ZN4llvm11raw_ostreamlsEPKc.exit

19:                                               ; preds = %6
  tail call void @llvm.memcpy.p0.p0.i64(ptr noundef nonnull align 1 dereferenceable(11) %12, ptr noundef nonnull align 1 dereferenceable(11) @.str.731, i64 11, i1 false)
  %20 = load ptr, ptr %11, align 8
  %21 = getelementptr inbounds i8, ptr %20, i64 11
  store ptr %21, ptr %11, align 8
  br label %_ZN4llvm11raw_ostreamlsEPKc.exit

_ZN4llvm11raw_ostreamlsEPKc.exit:                 ; preds = %19, %17, %2
  ret void
}